target datalayout = "e-m:e-p270:32:32-p271:32:32-p272:64:64-i64:64-i128:128-f80:128-n8:16:32:64-S128"
target triple = "x86_64-pc-linux-gnu"

%struct._asn1_ctx_t = type { i32, i32, i8, ptr, ptr, ptr, ptr, ptr, %struct.anon, %struct.anon.2, %struct.anon.3, ptr }
%struct.anon = type { i32, i8, i8, i8, ptr, ptr, i32, i32, ptr, ptr, ptr, %union.anon }
%union.anon = type { %struct.anon.0 }
%struct.anon.0 = type { ptr }
%struct.anon.2 = type { ptr, ptr, ptr }
%struct.anon.3 = type { i32, i8, ptr, i32, i32, ptr, ptr, ptr, %union.anon.4 }
%union.anon.4 = type { %struct.anon.5 }
%struct.anon.5 = type { ptr }
%struct.mms_actx_private_data_t = type { i32, i32, i32, i32, i32, i16, ptr, i32, i32, i32, ptr, ptr, i32 }
%struct.nstime_t = type { i64, i32 }
%struct._mms_transaction_t = type { i32, i32, %struct.nstime_t, i32, i32 }

@hf_mms_iec61850_ctlModel = internal global i32 0, align 4
@hf_mms_iec61850_orcategory = internal global i32 0, align 4
@"hf_mms_iec61850_beh$stval" = internal global i32 0, align 4
@"hf_mms_iec61850_health$stval" = internal global i32 0, align 4
@hf_mms_iec61850_origin_orcat = internal global i32 0, align 4

; Function Attrs: null_pointer_is_valid sspstrong uwtable
define internal i32 @dissect_mms_T_integer(i1 noundef zeroext %0, ptr noundef %1, i32 noundef %2, ptr noundef %3, ptr noundef %4, i32 noundef %5) #0 {
  %7 = alloca i8, align 1
  %8 = alloca ptr, align 8
  %9 = alloca i32, align 4
  %10 = alloca ptr, align 8
  %11 = alloca ptr, align 8
  %12 = alloca i32, align 4
  %13 = alloca ptr, align 8
  %14 = zext i1 %0 to i8
  store i8 %14, ptr %7, align 1
  store ptr %1, ptr %8, align 8
  store i32 %2, ptr %9, align 4
  store ptr %3, ptr %10, align 8
  store ptr %4, ptr %11, align 8
  store i32 %5, ptr %12, align 4
  call void @llvm.lifetime.start.p0(i64 8, ptr %13) #8
  %15 = load ptr, ptr %10, align 8
  %16 = getelementptr inbounds nuw %struct._asn1_ctx_t, ptr %15, i32 0, i32 7
  %17 = load ptr, ptr %16, align 8
  store ptr %17, ptr %13, align 8
  %18 = load ptr, ptr %13, align 8
  %19 = icmp ne ptr %18, null
  br i1 %19, label %20, label %91

20:                                               ; preds = %6
  %21 = load ptr, ptr %13, align 8
  %22 = getelementptr inbounds nuw %struct.mms_actx_private_data_t, ptr %21, i32 0, i32 10
  %23 = load ptr, ptr %22, align 8
  %24 = icmp ne ptr %23, null
  br i1 %24, label %25, label %91

25:                                               ; preds = %20
  %26 = load ptr, ptr %13, align 8
  %27 = getelementptr inbounds nuw %struct.mms_actx_private_data_t, ptr %26, i32 0, i32 10
  %28 = load ptr, ptr %27, align 8
  %29 = getelementptr inbounds nuw %struct._mms_transaction_t, ptr %28, i32 0, i32 3
  %30 = load i32, ptr %29, align 8
  %31 = icmp eq i32 %30, 1
  br i1 %31, label %32, label %34

32:                                               ; preds = %25
  %33 = load i32, ptr @hf_mms_iec61850_ctlModel, align 4
  store i32 %33, ptr %12, align 4
  br label %90

34:                                               ; preds = %25
  %35 = load ptr, ptr %13, align 8
  %36 = getelementptr inbounds nuw %struct.mms_actx_private_data_t, ptr %35, i32 0, i32 10
  %37 = load ptr, ptr %36, align 8
  %38 = getelementptr inbounds nuw %struct._mms_transaction_t, ptr %37, i32 0, i32 3
  %39 = load i32, ptr %38, align 8
  %40 = icmp eq i32 %39, 5
  br i1 %40, label %41, label %43

41:                                               ; preds = %34
  %42 = load i32, ptr @hf_mms_iec61850_orcategory, align 4
  store i32 %42, ptr %12, align 4
  br label %89

43:                                               ; preds = %34
  %44 = load ptr, ptr %13, align 8
  %45 = getelementptr inbounds nuw %struct.mms_actx_private_data_t, ptr %44, i32 0, i32 10
  %46 = load ptr, ptr %45, align 8
  %47 = getelementptr inbounds nuw %struct._mms_transaction_t, ptr %46, i32 0, i32 3
  %48 = load i32, ptr %47, align 8
  %49 = icmp eq i32 %48, 6
  br i1 %49, label %50, label %52

50:                                               ; preds = %43
  %51 = load i32, ptr @"hf_mms_iec61850_beh$stval", align 4
  store i32 %51, ptr %12, align 4
  br label %88

52:                                               ; preds = %43
  %53 = load ptr, ptr %13, align 8
  %54 = getelementptr inbounds nuw %struct.mms_actx_private_data_t, ptr %53, i32 0, i32 10
  %55 = load ptr, ptr %54, align 8
  %56 = getelementptr inbounds nuw %struct._mms_transaction_t, ptr %55, i32 0, i32 3
  %57 = load i32, ptr %56, align 8
  %58 = icmp eq i32 %57, 7
  br i1 %58, label %59, label %61

59:                                               ; preds = %52
  %60 = load i32, ptr @"hf_mms_iec61850_beh$stval", align 4
  store i32 %60, ptr %12, align 4
  br label %87

61:                                               ; preds = %52
  %62 = load ptr, ptr %13, align 8
  %63 = getelementptr inbounds nuw %struct.mms_actx_private_data_t, ptr %62, i32 0, i32 10
  %64 = load ptr, ptr %63, align 8
  %65 = getelementptr inbounds nuw %struct._mms_transaction_t, ptr %64, i32 0, i32 3
  %66 = load i32, ptr %65, align 8
  %67 = icmp eq i32 %66, 8
  br i1 %67, label %68, label %70

68:                                               ; preds = %61
  %69 = load i32, ptr @"hf_mms_iec61850_health$stval", align 4
  store i32 %69, ptr %12, align 4
  br label %86

70:                                               ; preds = %61
  %71 = load ptr, ptr %13, align 8
  %72 = getelementptr inbounds nuw %struct.mms_actx_private_data_t, ptr %71, i32 0, i32 10
  %73 = load ptr, ptr %72, align 8
  %74 = getelementptr inbounds nuw %struct._mms_transaction_t, ptr %73, i32 0, i32 4
  %75 = load i32, ptr %74, align 4
  %76 = icmp eq i32 %75, 5
  br i1 %76, label %77, label %85

77:                                               ; preds = %70
  %78 = load ptr, ptr %13, align 8
  %79 = getelementptr inbounds nuw %struct.mms_actx_private_data_t, ptr %78, i32 0, i32 4
  %80 = load i32, ptr %79, align 8
  %81 = icmp eq i32 %80, 5
  br i1 %81, label %82, label %84

82:                                               ; preds = %77
  %83 = load i32, ptr @hf_mms_iec61850_origin_orcat, align 4
  store i32 %83, ptr %12, align 4
  br label %84

84:                                               ; preds = %82, %77
  br label %85

85:                                               ; preds = %84, %70
  br label %86

86:                                               ; preds = %85, %68
  br label %87

87:                                               ; preds = %86, %59
  br label %88

88:                                               ; preds = %87, %50
  br label %89

89:                                               ; preds = %88, %41
  br label %90

90:                                               ; preds = %89, %32
  br label %91

91:                                               ; preds = %90, %20, %6
  %92 = load i8, ptr %7, align 1, !range !6, !noundef !7
  %93 = trunc i8 %92 to i1
  %94 = load ptr, ptr %10, align 8
  %95 = load ptr, ptr %11, align 8
  %96 = load ptr, ptr %8, align 8
  %97 = load i32, ptr %9, align 4
  %98 = load i32, ptr %12, align 4
  %99 = call i32 @dissect_ber_integer(i1 noundef zeroext %93, ptr noundef %94, ptr noundef %95, ptr noundef %96, i32 noundef %97, i32 noundef %98, ptr noundef null)
  store i32 %99, ptr %9, align 4
  %100 = load i32, ptr %9, align 4
  call void @llvm.lifetime.end.p0(i64 8, ptr %13) #8
  ret i32 %100
}