; Function Attrs: null_pointer_is_valid sspstrong uwtable
define internal i32 @dissect_mms_T_integer(i1 noundef zeroext %0, ptr noundef %1, i32 noundef %2, ptr noundef %3, ptr noundef %4, i32 noundef %5) #0 {
  %7 = getelementptr inbounds nuw i8, ptr %3, i64 48
  %8 = load ptr, ptr %7, align 8
  %.not = icmp eq ptr %8, null
  br i1 %.not, label %34, label %9

9:                                                ; preds = %6
  %10 = getelementptr inbounds nuw i8, ptr %8, i64 48
  %11 = load ptr, ptr %10, align 8
  %.not19 = icmp eq ptr %11, null
  br i1 %.not19, label %34, label %12

12:                                               ; preds = %9
  %13 = getelementptr inbounds nuw i8, ptr %11, i64 24
  %14 = load i32, ptr %13, align 8
  switch i32 %14, label %25 [
    i32 1, label %15
    i32 5, label %17
    i32 6, label %19
    i32 7, label %21
    i32 8, label %23
  ]

15:                                               ; preds = %12
  %16 = load i32, ptr @hf_mms_iec61850_ctlModel, align 4
  br label %34

17:                                               ; preds = %12
  %18 = load i32, ptr @hf_mms_iec61850_orcategory, align 4
  br label %34

19:                                               ; preds = %12
  %20 = load i32, ptr @"hf_mms_iec61850_beh$stval", align 4
  br label %34

21:                                               ; preds = %12
  %22 = load i32, ptr @"hf_mms_iec61850_beh$stval", align 4
  br label %34

23:                                               ; preds = %12
  %24 = load i32, ptr @"hf_mms_iec61850_health$stval", align 4
  br label %34

25:                                               ; preds = %12
  %26 = getelementptr inbounds nuw i8, ptr %11, i64 28
  %27 = load i32, ptr %26, align 4
  %28 = icmp eq i32 %27, 5
  br i1 %28, label %29, label %34

29:                                               ; preds = %25
  %30 = getelementptr inbounds nuw i8, ptr %8, i64 16
  %31 = load i32, ptr %30, align 8
  %32 = icmp eq i32 %31, 5
  %33 = load i32, ptr @hf_mms_iec61850_origin_orcat, align 4
  %spec.select = select i1 %32, i32 %33, i32 %5
  br label %34

34:                                               ; preds = %29, %15, %19, %23, %25, %21, %17, %9, %6
  %.0 = phi i32 [ %16, %15 ], [ %18, %17 ], [ %20, %19 ], [ %22, %21 ], [ %24, %23 ], [ %5, %25 ], [ %5, %9 ], [ %5, %6 ], [ %spec.select, %29 ]
  %35 = tail call i32 @dissect_ber_integer(i1 noundef zeroext %0, ptr noundef %3, ptr noundef %4, ptr noundef %1, i32 noundef %2, i32 noundef %.0, ptr noundef null)
  ret i32 %35
}